target datalayout = "e-m:e-p270:32:32-p271:32:32-p272:64:64-i64:64-i128:128-f80:128-n8:16:32:64-S128"
target triple = "x86_64-pc-linux-gnu"

%struct.ComplexMatrixN = type { i32, ptr, ptr }

@__func__.destroyComplexMatrixN = private unnamed_addr constant [22 x i8] c"destroyComplexMatrixN\00", align 1

; Function Attrs: nounwind uwtable
define void @destroyComplexMatrixN(ptr noundef byval(%struct.ComplexMatrixN) align 8 %0) #0 {
  %2 = alloca i32, align 4
  %3 = alloca i32, align 4
  call void @validateMatrixInit(ptr noundef byval(%struct.ComplexMatrixN) align 8 %0, ptr noundef @__func__.destroyComplexMatrixN)
  call void @llvm.lifetime.start.p0(i64 4, ptr %2) #7
  %4 = getelementptr inbounds nuw %struct.ComplexMatrixN, ptr %0, i32 0, i32 0
  %5 = load i32, ptr %4, align 8, !tbaa !45
  %6 = shl i32 1, %5
  store i32 %6, ptr %2, align 4, !tbaa !4
  call void @llvm.lifetime.start.p0(i64 4, ptr %3) #7
  store i32 0, ptr %3, align 4, !tbaa !4
  br label %7

7:                                                ; preds = %25, %1
  %8 = load i32, ptr %3, align 4, !tbaa !4
  %9 = load i32, ptr %2, align 4, !tbaa !4
  %10 = icmp slt i32 %8, %9
  br i1 %10, label %12, label %11

11:                                               ; preds = %7
  call void @llvm.lifetime.end.p0(i64 4, ptr %3) #7
  br label %28

12:                                               ; preds = %7
  %13 = getelementptr inbounds nuw %struct.ComplexMatrixN, ptr %0, i32 0, i32 1
  %14 = load ptr, ptr %13, align 8, !tbaa !48
  %15 = load i32, ptr %3, align 4, !tbaa !4
  %16 = sext i32 %15 to i64
  %17 = getelementptr inbounds ptr, ptr %14, i64 %16
  %18 = load ptr, ptr %17, align 8, !tbaa !23
  call void @free(ptr noundef %18) #7
  %19 = getelementptr inbounds nuw %struct.ComplexMatrixN, ptr %0, i32 0, i32 2
  %20 = load ptr, ptr %19, align 8, !tbaa !49
  %21 = load i32, ptr %3, align 4, !tbaa !4
  %22 = sext i32 %21 to i64
  %23 = getelementptr inbounds ptr, ptr %20, i64 %22
  %24 = load ptr, ptr %23, align 8, !tbaa !23
  call void @free(ptr noundef %24) #7
  br label %25

25:                                               ; preds = %12
  %26 = load i32, ptr %3, align 4, !tbaa !4
  %27 = add nsw i32 %26, 1
  store i32 %27, ptr %3, align 4, !tbaa !4
  br label %7

28:                                               ; preds = %11
  %29 = getelementptr inbounds nuw %struct.ComplexMatrixN, ptr %0, i32 0, i32 1
  %30 = load ptr, ptr %29, align 8, !tbaa !48
  call void @free(ptr noundef %30) #7
  %31 = getelementptr inbounds nuw %struct.ComplexMatrixN, ptr %0, i32 0, i32 2
  %32 = load ptr, ptr %31, align 8, !tbaa !49
  call void @free(ptr noundef %32) #7
  call void @llvm.lifetime.end.p0(i64 4, ptr %2) #7
  ret void
}