; Function Attrs: nounwind uwtable
define void @destroyComplexMatrixN(ptr noundef readonly byval(%struct.ComplexMatrixN) align 8 captures(none) %0) local_unnamed_addr #0 {
  tail call void @validateMatrixInit(ptr noundef nonnull byval(%struct.ComplexMatrixN) align 8 %0, ptr noundef nonnull @__func__.destroyComplexMatrixN) #17
  %2 = load i32, ptr %0, align 8, !tbaa !25
  %.not = icmp eq i32 %2, 31
  br i1 %.not, label %.._crit_edge_crit_edge, label %.lr.ph

.._crit_edge_crit_edge:                           ; preds = %1
  %.phi.trans.insert = getelementptr inbounds nuw i8, ptr %0, i64 8
  %.pre = load ptr, ptr %.phi.trans.insert, align 8, !tbaa !28
  %.phi.trans.insert7 = getelementptr inbounds nuw i8, ptr %0, i64 16
  %.pre8 = load ptr, ptr %.phi.trans.insert7, align 8, !tbaa !29
  br label %._crit_edge

.lr.ph:                                           ; preds = %1
  %3 = shl nuw nsw i32 1, %2
  %4 = getelementptr inbounds nuw i8, ptr %0, i64 8
  %5 = load ptr, ptr %4, align 8, !tbaa !28
  %6 = getelementptr inbounds nuw i8, ptr %0, i64 16
  %7 = load ptr, ptr %6, align 8, !tbaa !29
  %wide.trip.count = zext nneg i32 %3 to i64
  br label %10

._crit_edge:                                      ; preds = %10, %.._crit_edge_crit_edge
  %8 = phi ptr [ %.pre8, %.._crit_edge_crit_edge ], [ %7, %10 ]
  %9 = phi ptr [ %.pre, %.._crit_edge_crit_edge ], [ %5, %10 ]
  tail call void @free(ptr noundef %9) #17
  tail call void @free(ptr noundef %8) #17
  ret void

10:                                               ; preds = %.lr.ph, %10
  %indvars.iv = phi i64 [ 0, %.lr.ph ], [ %indvars.iv.next, %10 ]
  %11 = getelementptr inbounds nuw ptr, ptr %5, i64 %indvars.iv
  %12 = load ptr, ptr %11, align 8, !tbaa !30
  tail call void @free(ptr noundef %12) #17
  %13 = getelementptr inbounds nuw ptr, ptr %7, i64 %indvars.iv
  %14 = load ptr, ptr %13, align 8, !tbaa !30
  tail call void @free(ptr noundef %14) #17
  %indvars.iv.next = add nuw nsw i64 %indvars.iv, 1
  %exitcond.not = icmp eq i64 %indvars.iv.next, %wide.trip.count
  br i1 %exitcond.not, label %._crit_edge, label %10
}